; Function Attrs: mustprogress uwtable
define hidden void @_ZN3smt22theory_user_propagator13replay_clauseERK10ref_vectorI4expr11ast_managerE(ptr noundef nonnull align 8 dereferenceable(532) %0, ptr noundef nonnull readonly align 8 captures(none) dereferenceable(16) %1) local_unnamed_addr #4 align 2 {
  %3 = getelementptr inbounds nuw i8, ptr %0, i64 416
  %4 = load ptr, ptr %3, align 8, !tbaa !515
  %.not.i = icmp eq ptr %4, null
  br i1 %.not.i, label %_ZN6vectorIN3sat7literalELb0EjE5resetEv.exit, label %5

5:                                                ; preds = %2
  %6 = getelementptr inbounds i8, ptr %4, i64 -4
  store i32 0, ptr %6, align 4, !tbaa !508
  br label %_ZN6vectorIN3sat7literalELb0EjE5resetEv.exit

_ZN6vectorIN3sat7literalELb0EjE5resetEv.exit:     ; preds = %2, %5
  %7 = getelementptr inbounds nuw i8, ptr %1, i64 8
  %8 = load ptr, ptr %7, align 8, !tbaa !507
  %9 = icmp eq ptr %8, null
  br i1 %9, label %._crit_edge, label %_ZNK15ref_vector_coreI4expr19ref_manager_wrapperIS0_11ast_managerEE3endEv.exit

_ZNK15ref_vector_coreI4expr19ref_manager_wrapperIS0_11ast_managerEE3endEv.exit: ; preds = %_ZN6vectorIN3sat7literalELb0EjE5resetEv.exit
  %10 = getelementptr inbounds i8, ptr %8, i64 -4
  %11 = load i32, ptr %10, align 4, !tbaa !508
  %12 = zext i32 %11 to i64
  %13 = getelementptr inbounds nuw ptr, ptr %8, i64 %12
  %.not9 = icmp eq i32 %11, 0
  br i1 %.not9, label %._crit_edge, label %.lr.ph

._crit_edge:                                      ; preds = %_ZN6vectorIN3sat7literalELb0EjE5resetEv.exit, %_ZNK15ref_vector_coreI4expr19ref_manager_wrapperIS0_11ast_managerEE3endEv.exit
  %14 = getelementptr inbounds nuw i8, ptr %0, i64 16
  %15 = load ptr, ptr %14, align 8, !tbaa !555
  %16 = getelementptr inbounds nuw i8, ptr %0, i64 8
  %17 = load i32, ptr %16, align 8, !tbaa !560
  %18 = icmp eq ptr %4, null
  br i1 %18, label %_ZN3smt7context11mk_th_axiomEiRK7svectorIN3sat7literalEjEjP9parameter.exit, label %19

19:                                               ; preds = %._crit_edge.thread, %._crit_edge
  %20 = phi i32 [ %49, %._crit_edge.thread ], [ %17, %._crit_edge ]
  %21 = phi ptr [ %47, %._crit_edge.thread ], [ %15, %._crit_edge ]
  %22 = phi ptr [ %40, %._crit_edge.thread ], [ %4, %._crit_edge ]
  %23 = getelementptr inbounds i8, ptr %22, i64 -4
  %24 = load i32, ptr %23, align 4, !tbaa !508
  br label %_ZN3smt7context11mk_th_axiomEiRK7svectorIN3sat7literalEjEjP9parameter.exit

_ZN3smt7context11mk_th_axiomEiRK7svectorIN3sat7literalEjEjP9parameter.exit: ; preds = %._crit_edge, %19
  %25 = phi i32 [ %20, %19 ], [ %17, %._crit_edge ]
  %26 = phi ptr [ %21, %19 ], [ %15, %._crit_edge ]
  %27 = phi ptr [ %22, %19 ], [ null, %._crit_edge ]
  %.0.i.i = phi i32 [ %24, %19 ], [ 0, %._crit_edge ]
  tail call void @_ZN3smt7context12mk_th_clauseEijPN3sat7literalEjP9parameterNS_11clause_kindE(ptr noundef nonnull align 8 dereferenceable(10544) %26, i32 noundef %25, i32 noundef %.0.i.i, ptr noundef %27, i32 noundef 0, ptr noundef null, i32 noundef 1)
  ret void

.lr.ph:                                           ; preds = %_ZNK15ref_vector_coreI4expr19ref_manager_wrapperIS0_11ast_managerEE3endEv.exit, %_ZN6vectorIN3sat7literalELb0EjE9push_backEOS1_.exit
  %.010 = phi ptr [ %45, %_ZN6vectorIN3sat7literalELb0EjE9push_backEOS1_.exit ], [ %8, %_ZNK15ref_vector_coreI4expr19ref_manager_wrapperIS0_11ast_managerEE3endEv.exit ]
  %28 = load ptr, ptr %.010, align 8, !tbaa !509
  %29 = tail call i32 @_ZN3smt6theory10mk_literalEP4expr(ptr noundef nonnull align 8 dereferenceable(53) %0, ptr noundef %28)
  %30 = load ptr, ptr %3, align 8, !tbaa !515
  %31 = icmp eq ptr %30, null
  br i1 %31, label %38, label %32

32:                                               ; preds = %.lr.ph
  %33 = getelementptr inbounds i8, ptr %30, i64 -4
  %34 = load i32, ptr %33, align 4, !tbaa !508
  %35 = getelementptr inbounds i8, ptr %30, i64 -8
  %36 = load i32, ptr %35, align 4, !tbaa !508
  %37 = icmp eq i32 %34, %36
  br i1 %37, label %38, label %_ZN6vectorIN3sat7literalELb0EjE9push_backEOS1_.exit

38:                                               ; preds = %32, %.lr.ph
  tail call void @_ZN6vectorIN3sat7literalELb0EjE13expand_vectorEv(ptr noundef nonnull align 8 dereferenceable(8) %3)
  %.pre.i = load ptr, ptr %3, align 8, !tbaa !515
  %.phi.trans.insert.i = getelementptr inbounds i8, ptr %.pre.i, i64 -4
  %.pre2.i = load i32, ptr %.phi.trans.insert.i, align 4, !tbaa !508
  br label %_ZN6vectorIN3sat7literalELb0EjE9push_backEOS1_.exit

_ZN6vectorIN3sat7literalELb0EjE9push_backEOS1_.exit: ; preds = %32, %38
  %39 = phi i32 [ %.pre2.i, %38 ], [ %34, %32 ]
  %40 = phi ptr [ %.pre.i, %38 ], [ %30, %32 ]
  %41 = getelementptr inbounds i8, ptr %40, i64 -4
  %42 = zext i32 %39 to i64
  %43 = getelementptr inbounds nuw %"class.sat::literal", ptr %40, i64 %42
  store i32 %29, ptr %43, align 4, !tbaa !508
  %44 = add i32 %39, 1
  store i32 %44, ptr %41, align 4, !tbaa !508
  %45 = getelementptr inbounds nuw i8, ptr %.010, i64 8
  %.not = icmp eq ptr %45, %13
  br i1 %.not, label %._crit_edge.thread, label %.lr.ph

._crit_edge.thread:                               ; preds = %_ZN6vectorIN3sat7literalELb0EjE9push_backEOS1_.exit
  %46 = getelementptr inbounds nuw i8, ptr %0, i64 16
  %47 = load ptr, ptr %46, align 8, !tbaa !555
  %48 = getelementptr inbounds nuw i8, ptr %0, i64 8
  %49 = load i32, ptr %48, align 8, !tbaa !560
  br label %19
}